; Function Attrs: mustprogress uwtable
define dso_local void @_ZN24btSoftRigidDynamicsWorld26solveSoftBodiesConstraintsEf(ptr noundef nonnull align 8 dereferenceable(689) %0, float noundef %1) local_unnamed_addr #0 align 2 personality ptr @__gxx_personality_v0 {
  %3 = alloca %class.CProfileSample, align 1
  call void @llvm.lifetime.start.p0(i64 1, ptr nonnull %3) #15
  call void @_ZN14CProfileSampleC1EPKc(ptr noundef nonnull align 1 dereferenceable(1) %3, ptr noundef nonnull @.str.1)
  %4 = getelementptr inbounds nuw i8, ptr %0, i64 516
  %5 = load i32, ptr %4, align 4, !tbaa !16
  %.not = icmp eq i32 %5, 0
  br i1 %.not, label %10, label %6

6:                                                ; preds = %2
  %7 = getelementptr inbounds nuw i8, ptr %0, i64 512
  invoke void @_ZN10btSoftBody13solveClustersERK20btAlignedObjectArrayIPS_E(ptr noundef nonnull align 8 dereferenceable(25) %7)
          to label %10 unwind label %8

8:                                                ; preds = %10, %6
  %9 = landingpad { ptr, i32 }
          cleanup
  call void @_ZN14CProfileSampleD1Ev(ptr noundef nonnull align 1 dereferenceable(1) %3) #15
  call void @llvm.lifetime.end.p0(i64 1, ptr nonnull %3) #15
  resume { ptr, i32 } %9

10:                                               ; preds = %6, %2
  %11 = getelementptr inbounds nuw i8, ptr %0, i64 680
  %12 = load ptr, ptr %11, align 8, !tbaa !36
  %13 = getelementptr inbounds nuw i8, ptr %12, i64 16
  %14 = load float, ptr %13, align 8, !tbaa !93
  %15 = fmul float %1, %14
  %16 = load ptr, ptr %12, align 8, !tbaa !4
  %17 = getelementptr inbounds nuw i8, ptr %16, i64 56
  %18 = load ptr, ptr %17, align 8
  invoke void %18(ptr noundef nonnull align 8 dereferenceable(20) %12, float noundef %15)
          to label %19 unwind label %8

19:                                               ; preds = %10
  call void @_ZN14CProfileSampleD1Ev(ptr noundef nonnull align 1 dereferenceable(1) %3) #15
  call void @llvm.lifetime.end.p0(i64 1, ptr nonnull %3) #15
  ret void
}